target datalayout = "e-m:e-p270:32:32-p271:32:32-p272:64:64-i64:64-i128:128-f80:128-n8:16:32:64-S128"
target triple = "x86_64-pc-linux-gnu"

%struct.jv = type { i8, i8, i16, i32, %union.anon }
%union.anon = type { ptr }

@.str.155 = private unnamed_addr constant [11 x i8] c"%s (%s) %s\00", align 1
@.str.172 = private unnamed_addr constant [24 x i8] c"cannot be searched from\00", align 1

; Function Attrs: nounwind uwtable
define internal i32 @jv_is_valid(i64 %0, ptr %1) #0 {
  %3 = alloca %struct.jv, align 8
  %4 = getelementptr inbounds nuw { i64, ptr }, ptr %3, i32 0, i32 0
  store i64 %0, ptr %4, align 8
  %5 = getelementptr inbounds nuw { i64, ptr }, ptr %3, i32 0, i32 1
  store ptr %1, ptr %5, align 8
  %6 = getelementptr inbounds nuw { i64, ptr }, ptr %3, i32 0, i32 0
  %7 = load i64, ptr %6, align 8
  %8 = getelementptr inbounds nuw { i64, ptr }, ptr %3, i32 0, i32 1
  %9 = load ptr, ptr %8, align 8
  %10 = call i32 @jv_get_kind(i64 %7, ptr %9)
  %11 = icmp ne i32 %10, 0
  %12 = zext i1 %11 to i32
  ret i32 %12
}

; Function Attrs: nounwind uwtable
define internal { i64, ptr } @type_error(i64 %0, ptr %1, ptr noundef %2) #0 {
  %4 = alloca %struct.jv, align 8
  %5 = alloca %struct.jv, align 8
  %6 = alloca ptr, align 8
  %7 = alloca [15 x i8], align 1
  %8 = alloca ptr, align 8
  %9 = alloca %struct.jv, align 8
  %10 = getelementptr inbounds nuw { i64, ptr }, ptr %5, i32 0, i32 0
  store i64 %0, ptr %10, align 8
  %11 = getelementptr inbounds nuw { i64, ptr }, ptr %5, i32 0, i32 1
  store ptr %1, ptr %11, align 8
  store ptr %2, ptr %6, align 8, !tbaa !12
  call void @llvm.lifetime.start.p0(i64 15, ptr %7) #10
  call void @llvm.lifetime.start.p0(i64 8, ptr %8) #10
  %12 = getelementptr inbounds nuw { i64, ptr }, ptr %5, i32 0, i32 0
  %13 = load i64, ptr %12, align 8
  %14 = getelementptr inbounds nuw { i64, ptr }, ptr %5, i32 0, i32 1
  %15 = load ptr, ptr %14, align 8
  %16 = call i32 @jv_get_kind(i64 %13, ptr %15)
  %17 = call ptr @jv_kind_name(i32 noundef %16)
  store ptr %17, ptr %8, align 8, !tbaa !12
  %18 = load ptr, ptr %8, align 8, !tbaa !12
  %19 = getelementptr inbounds [15 x i8], ptr %7, i64 0, i64 0
  %20 = getelementptr inbounds nuw { i64, ptr }, ptr %5, i32 0, i32 0
  %21 = load i64, ptr %20, align 8
  %22 = getelementptr inbounds nuw { i64, ptr }, ptr %5, i32 0, i32 1
  %23 = load ptr, ptr %22, align 8
  %24 = call ptr @jv_dump_string_trunc(i64 %21, ptr %23, ptr noundef %19, i64 noundef 15)
  %25 = load ptr, ptr %6, align 8, !tbaa !12
  %26 = call { i64, ptr } (ptr, ...) @jv_string_fmt(ptr noundef @.str.155, ptr noundef %18, ptr noundef %24, ptr noundef %25)
  %27 = getelementptr inbounds nuw { i64, ptr }, ptr %9, i32 0, i32 0
  %28 = extractvalue { i64, ptr } %26, 0
  store i64 %28, ptr %27, align 8
  %29 = getelementptr inbounds nuw { i64, ptr }, ptr %9, i32 0, i32 1
  %30 = extractvalue { i64, ptr } %26, 1
  store ptr %30, ptr %29, align 8
  %31 = getelementptr inbounds nuw { i64, ptr }, ptr %9, i32 0, i32 0
  %32 = load i64, ptr %31, align 8
  %33 = getelementptr inbounds nuw { i64, ptr }, ptr %9, i32 0, i32 1
  %34 = load ptr, ptr %33, align 8
  %35 = call { i64, ptr } @jv_invalid_with_msg(i64 %32, ptr %34)
  %36 = getelementptr inbounds nuw { i64, ptr }, ptr %4, i32 0, i32 0
  %37 = extractvalue { i64, ptr } %35, 0
  store i64 %37, ptr %36, align 8
  %38 = getelementptr inbounds nuw { i64, ptr }, ptr %4, i32 0, i32 1
  %39 = extractvalue { i64, ptr } %35, 1
  store ptr %39, ptr %38, align 8
  call void @llvm.lifetime.end.p0(i64 8, ptr %8) #10
  call void @llvm.lifetime.end.p0(i64 15, ptr %7) #10
  %40 = load { i64, ptr }, ptr %4, align 8
  ret { i64, ptr } %40
}

; Function Attrs: nounwind uwtable
define internal { i64, ptr } @f_bsearch(ptr noundef %0, i64 %1, ptr %2, i64 %3, ptr %4) #0 {
  %6 = alloca %struct.jv, align 8
  %7 = alloca %struct.jv, align 8
  %8 = alloca %struct.jv, align 8
  %9 = alloca ptr, align 8
  %10 = alloca i32, align 4
  %11 = alloca i32, align 4
  %12 = alloca %struct.jv, align 8
  %13 = alloca i32, align 4
  %14 = alloca i32, align 4
  %15 = alloca %struct.jv, align 8
  %16 = alloca %struct.jv, align 8
  %17 = alloca %struct.jv, align 8
  %18 = alloca %struct.jv, align 8
  %19 = alloca i32, align 4
  %20 = alloca %struct.jv, align 8
  %21 = getelementptr inbounds nuw { i64, ptr }, ptr %7, i32 0, i32 0
  store i64 %1, ptr %21, align 8
  %22 = getelementptr inbounds nuw { i64, ptr }, ptr %7, i32 0, i32 1
  store ptr %2, ptr %22, align 8
  %23 = getelementptr inbounds nuw { i64, ptr }, ptr %8, i32 0, i32 0
  store i64 %3, ptr %23, align 8
  %24 = getelementptr inbounds nuw { i64, ptr }, ptr %8, i32 0, i32 1
  store ptr %4, ptr %24, align 8
  store ptr %0, ptr %9, align 8, !tbaa !25
  %25 = getelementptr inbounds nuw { i64, ptr }, ptr %7, i32 0, i32 0
  %26 = load i64, ptr %25, align 8
  %27 = getelementptr inbounds nuw { i64, ptr }, ptr %7, i32 0, i32 1
  %28 = load ptr, ptr %27, align 8
  %29 = call i32 @jv_get_kind(i64 %26, ptr %28)
  %30 = icmp ne i32 %29, 6
  br i1 %30, label %31, label %45

31:                                               ; preds = %5
  %32 = getelementptr inbounds nuw { i64, ptr }, ptr %8, i32 0, i32 0
  %33 = load i64, ptr %32, align 8
  %34 = getelementptr inbounds nuw { i64, ptr }, ptr %8, i32 0, i32 1
  %35 = load ptr, ptr %34, align 8
  call void @jv_free(i64 %33, ptr %35)
  %36 = getelementptr inbounds nuw { i64, ptr }, ptr %7, i32 0, i32 0
  %37 = load i64, ptr %36, align 8
  %38 = getelementptr inbounds nuw { i64, ptr }, ptr %7, i32 0, i32 1
  %39 = load ptr, ptr %38, align 8
  %40 = call { i64, ptr } @type_error(i64 %37, ptr %39, ptr noundef @.str.172)
  %41 = getelementptr inbounds nuw { i64, ptr }, ptr %6, i32 0, i32 0
  %42 = extractvalue { i64, ptr } %40, 0
  store i64 %42, ptr %41, align 8
  %43 = getelementptr inbounds nuw { i64, ptr }, ptr %6, i32 0, i32 1
  %44 = extractvalue { i64, ptr } %40, 1
  store ptr %44, ptr %43, align 8
  br label %161

45:                                               ; preds = %5
  call void @llvm.lifetime.start.p0(i64 4, ptr %10) #10
  store i32 0, ptr %10, align 4, !tbaa !10
  call void @llvm.lifetime.start.p0(i64 4, ptr %11) #10
  %46 = getelementptr inbounds nuw { i64, ptr }, ptr %7, i32 0, i32 0
  %47 = load i64, ptr %46, align 8
  %48 = getelementptr inbounds nuw { i64, ptr }, ptr %7, i32 0, i32 1
  %49 = load ptr, ptr %48, align 8
  %50 = call { i64, ptr } @jv_copy(i64 %47, ptr %49)
  %51 = getelementptr inbounds nuw { i64, ptr }, ptr %12, i32 0, i32 0
  %52 = extractvalue { i64, ptr } %50, 0
  store i64 %52, ptr %51, align 8
  %53 = getelementptr inbounds nuw { i64, ptr }, ptr %12, i32 0, i32 1
  %54 = extractvalue { i64, ptr } %50, 1
  store ptr %54, ptr %53, align 8
  %55 = getelementptr inbounds nuw { i64, ptr }, ptr %12, i32 0, i32 0
  %56 = load i64, ptr %55, align 8
  %57 = getelementptr inbounds nuw { i64, ptr }, ptr %12, i32 0, i32 1
  %58 = load ptr, ptr %57, align 8
  %59 = call i32 @jv_array_length(i64 %56, ptr %58)
  store i32 %59, ptr %11, align 4, !tbaa !10
  %60 = call { i64, ptr } @jv_invalid()
  %61 = getelementptr inbounds nuw { i64, ptr }, ptr %6, i32 0, i32 0
  %62 = extractvalue { i64, ptr } %60, 0
  store i64 %62, ptr %61, align 8
  %63 = getelementptr inbounds nuw { i64, ptr }, ptr %6, i32 0, i32 1
  %64 = extractvalue { i64, ptr } %60, 1
  store ptr %64, ptr %63, align 8
  br label %65

65:                                               ; preds = %135, %45
  %66 = load i32, ptr %10, align 4, !tbaa !10
  %67 = load i32, ptr %11, align 4, !tbaa !10
  %68 = icmp slt i32 %66, %67
  br i1 %68, label %69, label %136

69:                                               ; preds = %65
  call void @llvm.lifetime.start.p0(i64 4, ptr %13) #10
  %70 = load i32, ptr %10, align 4, !tbaa !10
  %71 = load i32, ptr %11, align 4, !tbaa !10
  %72 = load i32, ptr %10, align 4, !tbaa !10
  %73 = sub nsw i32 %71, %72
  %74 = sdiv i32 %73, 2
  %75 = add nsw i32 %70, %74
  store i32 %75, ptr %13, align 4, !tbaa !10
  call void @llvm.lifetime.start.p0(i64 4, ptr %14) #10
  %76 = getelementptr inbounds nuw { i64, ptr }, ptr %8, i32 0, i32 0
  %77 = load i64, ptr %76, align 8
  %78 = getelementptr inbounds nuw { i64, ptr }, ptr %8, i32 0, i32 1
  %79 = load ptr, ptr %78, align 8
  %80 = call { i64, ptr } @jv_copy(i64 %77, ptr %79)
  %81 = getelementptr inbounds nuw { i64, ptr }, ptr %15, i32 0, i32 0
  %82 = extractvalue { i64, ptr } %80, 0
  store i64 %82, ptr %81, align 8
  %83 = getelementptr inbounds nuw { i64, ptr }, ptr %15, i32 0, i32 1
  %84 = extractvalue { i64, ptr } %80, 1
  store ptr %84, ptr %83, align 8
  %85 = getelementptr inbounds nuw { i64, ptr }, ptr %7, i32 0, i32 0
  %86 = load i64, ptr %85, align 8
  %87 = getelementptr inbounds nuw { i64, ptr }, ptr %7, i32 0, i32 1
  %88 = load ptr, ptr %87, align 8
  %89 = call { i64, ptr } @jv_copy(i64 %86, ptr %88)
  %90 = getelementptr inbounds nuw { i64, ptr }, ptr %17, i32 0, i32 0
  %91 = extractvalue { i64, ptr } %89, 0
  store i64 %91, ptr %90, align 8
  %92 = getelementptr inbounds nuw { i64, ptr }, ptr %17, i32 0, i32 1
  %93 = extractvalue { i64, ptr } %89, 1
  store ptr %93, ptr %92, align 8
  %94 = load i32, ptr %13, align 4, !tbaa !10
  %95 = getelementptr inbounds nuw { i64, ptr }, ptr %17, i32 0, i32 0
  %96 = load i64, ptr %95, align 8
  %97 = getelementptr inbounds nuw { i64, ptr }, ptr %17, i32 0, i32 1
  %98 = load ptr, ptr %97, align 8
  %99 = call { i64, ptr } @jv_array_get(i64 %96, ptr %98, i32 noundef %94)
  %100 = getelementptr inbounds nuw { i64, ptr }, ptr %16, i32 0, i32 0
  %101 = extractvalue { i64, ptr } %99, 0
  store i64 %101, ptr %100, align 8
  %102 = getelementptr inbounds nuw { i64, ptr }, ptr %16, i32 0, i32 1
  %103 = extractvalue { i64, ptr } %99, 1
  store ptr %103, ptr %102, align 8
  %104 = getelementptr inbounds nuw { i64, ptr }, ptr %15, i32 0, i32 0
  %105 = load i64, ptr %104, align 8
  %106 = getelementptr inbounds nuw { i64, ptr }, ptr %15, i32 0, i32 1
  %107 = load ptr, ptr %106, align 8
  %108 = getelementptr inbounds nuw { i64, ptr }, ptr %16, i32 0, i32 0
  %109 = load i64, ptr %108, align 8
  %110 = getelementptr inbounds nuw { i64, ptr }, ptr %16, i32 0, i32 1
  %111 = load ptr, ptr %110, align 8
  %112 = call i32 @jv_cmp(i64 %105, ptr %107, i64 %109, ptr %111)
  store i32 %112, ptr %14, align 4, !tbaa !10
  %113 = load i32, ptr %14, align 4, !tbaa !10
  %114 = icmp eq i32 %113, 0
  br i1 %114, label %115, label %123

115:                                              ; preds = %69
  call void @llvm.lifetime.start.p0(i64 16, ptr %18) #10
  %116 = load i32, ptr %13, align 4, !tbaa !10
  %117 = sitofp i32 %116 to double
  %118 = call { i64, ptr } @jv_number(double noundef %117)
  %119 = getelementptr inbounds nuw { i64, ptr }, ptr %18, i32 0, i32 0
  %120 = extractvalue { i64, ptr } %118, 0
  store i64 %120, ptr %119, align 8
  %121 = getelementptr inbounds nuw { i64, ptr }, ptr %18, i32 0, i32 1
  %122 = extractvalue { i64, ptr } %118, 1
  store ptr %122, ptr %121, align 8
  call void @llvm.memcpy.p0.p0.i64(ptr align 8 %6, ptr align 8 %18, i64 16, i1 false), !tbaa.struct !4
  call void @llvm.lifetime.end.p0(i64 16, ptr %18) #10
  store i32 3, ptr %19, align 4
  br label %133

123:                                              ; preds = %69
  %124 = load i32, ptr %14, align 4, !tbaa !10
  %125 = icmp slt i32 %124, 0
  br i1 %125, label %126, label %128

126:                                              ; preds = %123
  %127 = load i32, ptr %13, align 4, !tbaa !10
  store i32 %127, ptr %11, align 4, !tbaa !10
  br label %131

128:                                              ; preds = %123
  %129 = load i32, ptr %13, align 4, !tbaa !10
  %130 = add nsw i32 %129, 1
  store i32 %130, ptr %10, align 4, !tbaa !10
  br label %131

131:                                              ; preds = %128, %126
  br label %132

132:                                              ; preds = %131
  store i32 0, ptr %19, align 4
  br label %133

133:                                              ; preds = %132, %115
  call void @llvm.lifetime.end.p0(i64 4, ptr %14) #10
  call void @llvm.lifetime.end.p0(i64 4, ptr %13) #10
  %134 = load i32, ptr %19, align 4
  switch i32 %134, label %163 [
    i32 0, label %135
    i32 3, label %136
  ]

135:                                              ; preds = %133
  br label %65, !llvm.loop !40

136:                                              ; preds = %133, %65
  %137 = getelementptr inbounds nuw { i64, ptr }, ptr %6, i32 0, i32 0
  %138 = load i64, ptr %137, align 8
  %139 = getelementptr inbounds nuw { i64, ptr }, ptr %6, i32 0, i32 1
  %140 = load ptr, ptr %139, align 8
  %141 = call i32 @jv_is_valid(i64 %138, ptr %140)
  %142 = icmp ne i32 %141, 0
  br i1 %142, label %152, label %143

143:                                              ; preds = %136
  call void @llvm.lifetime.start.p0(i64 16, ptr %20) #10
  %144 = load i32, ptr %10, align 4, !tbaa !10
  %145 = sub nsw i32 -1, %144
  %146 = sitofp i32 %145 to double
  %147 = call { i64, ptr } @jv_number(double noundef %146)
  %148 = getelementptr inbounds nuw { i64, ptr }, ptr %20, i32 0, i32 0
  %149 = extractvalue { i64, ptr } %147, 0
  store i64 %149, ptr %148, align 8
  %150 = getelementptr inbounds nuw { i64, ptr }, ptr %20, i32 0, i32 1
  %151 = extractvalue { i64, ptr } %147, 1
  store ptr %151, ptr %150, align 8
  call void @llvm.memcpy.p0.p0.i64(ptr align 8 %6, ptr align 8 %20, i64 16, i1 false), !tbaa.struct !4
  call void @llvm.lifetime.end.p0(i64 16, ptr %20) #10
  br label %152

152:                                              ; preds = %143, %136
  %153 = getelementptr inbounds nuw { i64, ptr }, ptr %7, i32 0, i32 0
  %154 = load i64, ptr %153, align 8
  %155 = getelementptr inbounds nuw { i64, ptr }, ptr %7, i32 0, i32 1
  %156 = load ptr, ptr %155, align 8
  call void @jv_free(i64 %154, ptr %156)
  %157 = getelementptr inbounds nuw { i64, ptr }, ptr %8, i32 0, i32 0
  %158 = load i64, ptr %157, align 8
  %159 = getelementptr inbounds nuw { i64, ptr }, ptr %8, i32 0, i32 1
  %160 = load ptr, ptr %159, align 8
  call void @jv_free(i64 %158, ptr %160)
  store i32 1, ptr %19, align 4
  call void @llvm.lifetime.end.p0(i64 4, ptr %11) #10
  call void @llvm.lifetime.end.p0(i64 4, ptr %10) #10
  br label %161

161:                                              ; preds = %152, %31
  %162 = load { i64, ptr }, ptr %6, align 8
  ret { i64, ptr } %162

163:                                              ; preds = %133
  unreachable
}