; Function Attrs: nounwind uwtable
define internal { i64, ptr } @f_bsearch(ptr readnone captures(none) %0, i64 %1, ptr %2, i64 %3, ptr %4) #0 {
  %6 = alloca [15 x i8], align 1
  %7 = tail call i32 @jv_get_kind(i64 %1, ptr %2) #14
  %.not = icmp eq i32 %7, 6
  br i1 %.not, label %16, label %8

8:                                                ; preds = %5
  tail call void @jv_free(i64 %3, ptr %4) #14
  call void @llvm.lifetime.start.p0(i64 15, ptr nonnull %6) #14
  %9 = tail call i32 @jv_get_kind(i64 %1, ptr %2) #14
  %10 = tail call ptr @jv_kind_name(i32 noundef %9) #14
  %11 = call ptr @jv_dump_string_trunc(i64 %1, ptr %2, ptr noundef nonnull %6, i64 noundef 15) #14
  %12 = call { i64, ptr } (ptr, ...) @jv_string_fmt(ptr noundef nonnull @.str.155, ptr noundef %10, ptr noundef %11, ptr noundef nonnull @.str.172) #14
  %13 = extractvalue { i64, ptr } %12, 0
  %14 = extractvalue { i64, ptr } %12, 1
  %15 = call { i64, ptr } @jv_invalid_with_msg(i64 %13, ptr %14) #14
  call void @llvm.lifetime.end.p0(i64 15, ptr nonnull %6) #14
  br label %49

16:                                               ; preds = %5
  %17 = tail call { i64, ptr } @jv_copy(i64 %1, ptr %2) #14
  %18 = extractvalue { i64, ptr } %17, 0
  %19 = extractvalue { i64, ptr } %17, 1
  %20 = tail call i32 @jv_array_length(i64 %18, ptr %19) #14
  %21 = tail call { i64, ptr } @jv_invalid() #14
  %22 = icmp sgt i32 %20, 0
  br i1 %22, label %.lr.ph, label %.loopexit

.lr.ph:                                           ; preds = %16, %39
  %.04057 = phi i32 [ %.3, %39 ], [ 0, %16 ]
  %.04156 = phi i32 [ %.243, %39 ], [ %20, %16 ]
  %23 = sub nsw i32 %.04156, %.04057
  %24 = sdiv i32 %23, 2
  %25 = add nsw i32 %24, %.04057
  %26 = tail call { i64, ptr } @jv_copy(i64 %3, ptr %4) #14
  %27 = extractvalue { i64, ptr } %26, 0
  %28 = extractvalue { i64, ptr } %26, 1
  %29 = tail call { i64, ptr } @jv_copy(i64 %1, ptr %2) #14
  %30 = extractvalue { i64, ptr } %29, 0
  %31 = extractvalue { i64, ptr } %29, 1
  %32 = tail call { i64, ptr } @jv_array_get(i64 %30, ptr %31, i32 noundef %25) #14
  %33 = extractvalue { i64, ptr } %32, 0
  %34 = extractvalue { i64, ptr } %32, 1
  %35 = tail call i32 @jv_cmp(i64 %27, ptr %28, i64 %33, ptr %34) #14
  %36 = icmp eq i32 %35, 0
  br i1 %36, label %.thread, label %39

.thread:                                          ; preds = %.lr.ph
  %37 = sitofp i32 %25 to double
  %38 = tail call { i64, ptr } @jv_number(double noundef %37) #14
  br label %.loopexit

39:                                               ; preds = %.lr.ph
  %40 = icmp slt i32 %35, 0
  %41 = add nsw i32 %25, 1
  %.243 = select i1 %40, i32 %25, i32 %.04156
  %.3 = select i1 %40, i32 %.04057, i32 %41
  %42 = icmp slt i32 %.3, %.243
  br i1 %42, label %.lr.ph, label %.loopexit

.loopexit:                                        ; preds = %39, %16, %.thread
  %.04055 = phi i32 [ %.04057, %.thread ], [ 0, %16 ], [ %.3, %39 ]
  %.pn = phi { i64, ptr } [ %38, %.thread ], [ %21, %16 ], [ %21, %39 ]
  %.sroa.639.2 = extractvalue { i64, ptr } %.pn, 1
  %.sroa.037.2 = extractvalue { i64, ptr } %.pn, 0
  %43 = tail call i32 @jv_get_kind(i64 %.sroa.037.2, ptr %.sroa.639.2) #14
  %.not53 = icmp eq i32 %43, 0
  br i1 %.not53, label %44, label %48

44:                                               ; preds = %.loopexit
  %45 = xor i32 %.04055, -1
  %46 = sitofp i32 %45 to double
  %47 = tail call { i64, ptr } @jv_number(double noundef %46) #14
  br label %48

48:                                               ; preds = %44, %.loopexit
  %.merged = phi { i64, ptr } [ %.pn, %.loopexit ], [ %47, %44 ]
  tail call void @jv_free(i64 %1, ptr %2) #14
  tail call void @jv_free(i64 %3, ptr %4) #14
  br label %49

49:                                               ; preds = %48, %8
  %.fca.1.insert.merged = phi { i64, ptr } [ %15, %8 ], [ %.merged, %48 ]
  ret { i64, ptr } %.fca.1.insert.merged
}